target datalayout = "e-m:e-p270:32:32-p271:32:32-p272:64:64-i64:64-i128:128-f80:128-n8:16:32:64-S128"
target triple = "x86_64-pc-linux-gnu"

%struct.ssh_bignum = type { ptr, i32 }

; Function Attrs: nounwind uwtable
define internal i32 @ssh_equal(ptr noundef %0, ptr noundef %1) #0 {
  %3 = alloca i32, align 4
  %4 = alloca ptr, align 8
  %5 = alloca ptr, align 8
  %6 = alloca ptr, align 8
  %7 = alloca ptr, align 8
  store ptr %0, ptr %4, align 8
  store ptr %1, ptr %5, align 8
  %8 = load ptr, ptr %4, align 8
  %9 = icmp eq ptr %8, null
  br i1 %9, label %13, label %10

10:                                               ; preds = %2
  %11 = load ptr, ptr %5, align 8
  %12 = icmp eq ptr %11, null
  br i1 %12, label %13, label %14

13:                                               ; preds = %10, %2
  store i32 0, ptr %3, align 4
  br label %39

14:                                               ; preds = %10
  %15 = load ptr, ptr %4, align 8
  store ptr %15, ptr %6, align 8
  %16 = load ptr, ptr %5, align 8
  store ptr %16, ptr %7, align 8
  %17 = load ptr, ptr %6, align 8
  %18 = getelementptr inbounds %struct.ssh_bignum, ptr %17, i32 0, i32 1
  %19 = load i32, ptr %18, align 8
  %20 = load ptr, ptr %7, align 8
  %21 = getelementptr inbounds %struct.ssh_bignum, ptr %20, i32 0, i32 1
  %22 = load i32, ptr %21, align 8
  %23 = icmp eq i32 %19, %22
  br i1 %23, label %24, label %38

24:                                               ; preds = %14
  %25 = load ptr, ptr %6, align 8
  %26 = getelementptr inbounds %struct.ssh_bignum, ptr %25, i32 0, i32 0
  %27 = load ptr, ptr %26, align 8
  %28 = load ptr, ptr %7, align 8
  %29 = getelementptr inbounds %struct.ssh_bignum, ptr %28, i32 0, i32 0
  %30 = load ptr, ptr %29, align 8
  %31 = load ptr, ptr %7, align 8
  %32 = getelementptr inbounds %struct.ssh_bignum, ptr %31, i32 0, i32 1
  %33 = load i32, ptr %32, align 8
  %34 = zext i32 %33 to i64
  %35 = call i32 @memcmp(ptr noundef %27, ptr noundef %30, i64 noundef %34) #11
  %36 = icmp ne i32 %35, 0
  br i1 %36, label %38, label %37

37:                                               ; preds = %24
  store i32 1, ptr %3, align 4
  br label %39

38:                                               ; preds = %24, %14
  store i32 0, ptr %3, align 4
  br label %39

39:                                               ; preds = %38, %37, %13
  %40 = load i32, ptr %3, align 4
  ret i32 %40
}