; Function Attrs: mustprogress nofree nounwind willreturn memory(read, inaccessiblemem: none) uwtable
define internal range(i32 0, 2) i32 @ssh_equal(ptr noundef readonly %0, ptr noundef readonly %1) #3 {
  %3 = icmp eq ptr %0, null
  %4 = icmp eq ptr %1, null
  %or.cond = or i1 %3, %4
  br i1 %or.cond, label %16, label %5

5:                                                ; preds = %2
  %6 = getelementptr inbounds nuw i8, ptr %0, i64 8
  %7 = load i32, ptr %6, align 8
  %8 = getelementptr inbounds nuw i8, ptr %1, i64 8
  %9 = load i32, ptr %8, align 8
  %10 = icmp eq i32 %7, %9
  br i1 %10, label %11, label %15

11:                                               ; preds = %5
  %12 = load ptr, ptr %0, align 8
  %13 = load ptr, ptr %1, align 8
  %14 = zext i32 %7 to i64
  %bcmp = tail call i32 @bcmp(ptr %12, ptr %13, i64 %14)
  %.not = icmp eq i32 %bcmp, 0
  br i1 %.not, label %16, label %15

15:                                               ; preds = %11, %5
  br label %16

16:                                               ; preds = %11, %2, %15
  %.0 = phi i32 [ 0, %15 ], [ 0, %2 ], [ 1, %11 ]
  ret i32 %.0
}